; Function Attrs: mustprogress nounwind uwtable
define dso_local void @_ZN4llvm10SSAUpdater10RewriteUseERNS_3UseE(ptr noundef nonnull align 8 dereferenceable(56) %0, ptr noundef nonnull align 8 dereferenceable(32) %1) local_unnamed_addr #0 align 2 {
  %3 = getelementptr inbounds nuw i8, ptr %1, i64 24
  %4 = load ptr, ptr %3, align 8
  %5 = load i8, ptr %4, align 8
  %.not = icmp eq i8 %5, 84
  br i1 %.not, label %6, label %21

6:                                                ; preds = %2
  %7 = getelementptr inbounds i8, ptr %4, i64 -8
  %8 = load ptr, ptr %7, align 8
  %9 = ptrtoint ptr %1 to i64
  %10 = ptrtoint ptr %8 to i64
  %11 = sub i64 %9, %10
  %12 = lshr exact i64 %11, 5
  %13 = getelementptr inbounds nuw i8, ptr %4, i64 72
  %14 = load i32, ptr %13, align 8
  %15 = zext i32 %14 to i64
  %16 = getelementptr inbounds %"class.llvm::Use", ptr %8, i64 %15
  %17 = and i64 %12, 4294967295
  %18 = getelementptr inbounds ptr, ptr %16, i64 %17
  %19 = load ptr, ptr %18, align 8
  %20 = tail call noundef ptr @_ZN4llvm10SSAUpdater28GetValueAtEndOfBlockInternalEPNS_10BasicBlockE(ptr noundef nonnull align 8 dereferenceable(56) %0, ptr noundef %19)
  br label %25

21:                                               ; preds = %2
  %22 = getelementptr inbounds i8, ptr %4, i64 40
  %23 = load ptr, ptr %22, align 8
  %24 = tail call noundef ptr @_ZN4llvm10SSAUpdater23GetValueInMiddleOfBlockEPNS_10BasicBlockE(ptr noundef nonnull align 8 dereferenceable(56) %0, ptr noundef %23)
  br label %25

25:                                               ; preds = %21, %6
  %.0 = phi ptr [ %20, %6 ], [ %24, %21 ]
  %26 = load ptr, ptr %1, align 8
  %.not.i = icmp eq ptr %26, null
  br i1 %.not.i, label %_ZN4llvm3Use14removeFromListEv.exit.i, label %27

27:                                               ; preds = %25
  %28 = getelementptr inbounds nuw i8, ptr %1, i64 8
  %29 = load ptr, ptr %28, align 8
  %30 = getelementptr inbounds nuw i8, ptr %1, i64 16
  %31 = load ptr, ptr %30, align 8
  store ptr %29, ptr %31, align 8
  %.not.i.i = icmp eq ptr %29, null
  br i1 %.not.i.i, label %_ZN4llvm3Use14removeFromListEv.exit.i, label %32

32:                                               ; preds = %27
  %33 = load ptr, ptr %30, align 8
  %34 = getelementptr inbounds nuw i8, ptr %29, i64 16
  store ptr %33, ptr %34, align 8
  br label %_ZN4llvm3Use14removeFromListEv.exit.i

_ZN4llvm3Use14removeFromListEv.exit.i:            ; preds = %32, %27, %25
  store ptr %.0, ptr %1, align 8
  %.not4.i = icmp eq ptr %.0, null
  br i1 %.not4.i, label %_ZN4llvm3Use3setEPNS_5ValueE.exit, label %35

35:                                               ; preds = %_ZN4llvm3Use14removeFromListEv.exit.i
  %36 = getelementptr inbounds nuw i8, ptr %.0, i64 16
  %37 = load ptr, ptr %36, align 8
  %38 = getelementptr inbounds nuw i8, ptr %1, i64 8
  store ptr %37, ptr %38, align 8
  %.not.i.i.i = icmp eq ptr %37, null
  br i1 %.not.i.i.i, label %_ZN4llvm5Value6addUseERNS_3UseE.exit.i, label %39

39:                                               ; preds = %35
  %40 = getelementptr inbounds nuw i8, ptr %37, i64 16
  store ptr %38, ptr %40, align 8
  br label %_ZN4llvm5Value6addUseERNS_3UseE.exit.i

_ZN4llvm5Value6addUseERNS_3UseE.exit.i:           ; preds = %39, %35
  %41 = getelementptr inbounds nuw i8, ptr %1, i64 16
  store ptr %36, ptr %41, align 8
  store ptr %1, ptr %36, align 8
  br label %_ZN4llvm3Use3setEPNS_5ValueE.exit

_ZN4llvm3Use3setEPNS_5ValueE.exit:                ; preds = %_ZN4llvm3Use14removeFromListEv.exit.i, %_ZN4llvm5Value6addUseERNS_3UseE.exit.i
  ret void
}